Certificate:
    Data:
        Version: 3 (0x2)
        Serial Number: 1 (0x1)
        Signature Algorithm: sha1WithRSAEncryption
        Issuer: CN=root-ca.mk
        Validity
            Not Before: Sep 29 18:22:11 2020 GMT
            Not After : Sep 29 18:22:11 2030 GMT
        Subject: CN=root-ca.mk
        Subject Public Key Info:
            Public Key Algorithm: rsaEncryption
                RSA Public-Key: (2048 bit)
                Modulus:
                    00:f0:fe:ab:8a:73:ff:23:8d:47:d0:7f:e5:c8:f0:
                    66:ee:0b:43:28:f1:00:3d:3a:c7:f8:cf:62:8b:09:
                    f1:82:3c:f6:fc:87:9a:b2:be:a2:5c:74:e8:ff:76:
                    a3:15:a3:02:76:90:cf:95:5f:b9:48:6f:42:8f:93:
                    85:d1:0b:b9:43:36:c3:73:0e:7b:f3:ea:b8:28:dc:
                    89:f0:e1:12:6d:7d:60:5e:ae:ef:90:81:4b:94:a8:
                    3b:6c:38:6e:0a:c9:7d:41:ae:5d:fc:f4:f8:e9:97:
                    0d:27:c4:26:b5:27:8e:27:f7:18:c8:10:5b:e8:be:
                    94:74:7a:d5:c0:86:0e:fc:66:aa:31:0e:42:ce:b0:
                    dd:7b:48:eb:03:51:ed:6b:19:10:ca:c5:bc:e5:6d:
                    ad:a8:41:eb:61:50:47:8d:40:40:95:a4:65:fa:db:
                    b4:80:0a:3f:4d:e8:b0:8e:2c:55:52:fb:b9:23:24:
                    48:57:8d:65:83:09:07:41:66:05:47:a0:67:a7:cf:
                    f3:a7:4c:e6:6e:0e:88:25:5c:5e:61:01:18:b5:8e:
                    07:be:41:18:92:9e:96:23:83:ff:d8:c5:43:ad:71:
                    b0:fd:06:34:9d:ef:ed:9e:08:8c:7a:9e:30:00:76:
                    56:bd:13:56:87:f4:0a:b6:31:2b:b0:5d:96:1c:bb:
                    c9:01
                Exponent: 65537 (0x10001)
        X509v3 extensions:
            X509v3 Key Usage: critical
                Certificate Sign, CRL Sign
            X509v3 Basic Constraints: critical
                CA:TRUE
            X509v3 Subject Key Identifier: 
                D7:F1:5E:52:EF:AF:9D:39:5E:A7:30:98:0D:5D:35:4F:94:5B:07:5A
            X509v3 Authority Key Identifier: 
                keyid:D7:F1:5E:52:EF:AF:9D:39:5E:A7:30:98:0D:5D:35:4F:94:5B:07:5A

    Signature Algorithm: sha1WithRSAEncryption
         1c:60:b5:18:7c:68:16:05:0f:23:27:fd:e2:32:f7:a3:6f:c8:
         f3:e0:23:95:80:dd:28:0a:8c:76:0d:46:36:08:7a:94:24:af:
         b2:c7:24:2b:48:f9:b1:8e:95:ed:9a:ea:6f:ff:8a:47:d6:9d:
         8f:d0:c4:e4:70:c4:7a:e5:91:7e:01:07:e7:2c:2b:0a:48:9a:
         77:c5:9e:2a:8d:eb:71:d0:6c:f5:fe:94:d1:29:cf:c9:1a:30:
         4c:d3:8f:1a:a2:25:fb:62:de:30:39:41:85:56:33:91:d3:84:
         9e:71:72:b0:ca:e6:7f:fb:5b:b1:39:8b:99:7e:80:c5:6a:3e:
         e7:09:8c:bb:74:c6:a0:58:9f:cd:ee:da:4a:a8:dc:c5:58:09:
         65:8a:23:2b:b9:e0:8d:4d:ef:74:3f:e1:73:a5:12:75:30:fa:
         ae:36:ea:6f:84:28:fc:39:15:bc:e2:81:e9:8d:d7:03:00:ef:
         70:02:34:f3:6a:48:44:15:35:e6:7d:59:69:16:a7:3a:7e:6b:
         9e:37:73:80:70:5b:2c:7a:a9:ee:12:87:ac:db:b5:4e:84:fc:
         f2:b9:2c:58:c3:c4:86:9f:e0:36:3d:fc:aa:b1:0e:d3:78:0e:
         5e:83:a1:16:b4:22:32:fd:13:f1:e7:9c:3e:82:15:19:8e:57:
         bc:e0:47:96
-----BEGIN CERTIFICATE-----
MIIDCDCCAfCgAwIBAgIBATANBgkqhkiG9w0BAQUFADAVMRMwEQYDVQQDDApyb290
LWNhLm1rMB4XDTIwMDkyOTE4MjIxMVoXDTMwMDkyOTE4MjIxMVowFTETMBEGA1UE
AwwKcm9vdC1jYS5tazCCASIwDQYJKoZIhvcNAQEBBQADggEPADCCAQoCggEBAPD+
q4pz/yONR9B/5cjwZu4LQyjxAD06x/jPYosJ8YI89vyHmrK+olx06P92oxWjAnaQ
z5VfuUhvQo+ThdELuUM2w3MOe/PquCjcifDhEm19YF6u75CBS5SoO2w4bgrJfUGu
Xfz0+OmXDSfEJrUnjif3GMgQW+i+lHR61cCGDvxmqjEOQs6w3XtI6wNR7WsZEMrF
vOVtrahB62FQR41AQJWkZfrbtIAKP03osI4sVVL7uSMkSFeNZYMJB0FmBUegZ6fP
86dM5m4OiCVcXmEBGLWOB75BGJKeliOD/9jFQ61xsP0GNJ3v7Z4IjHqeMAB2Vr0T
Vof0CrYxK7Bdlhy7yQECAwEAAaNjMGEwDgYDVR0PAQH/BAQDAgEGMA8GA1UdEwEB
/wQFMAMBAf8wHQYDVR0OBBYEFNfxXlLvr505XqcwmA1dNU+UWwdaMB8GA1UdIwQY
MBaAFNfxXlLvr505XqcwmA1dNU+UWwdaMA0GCSqGSIb3DQEBBQUAA4IBAQAcYLUY
fGgWBQ8jJ/3iMvejb8jz4COVgN0oCox2DUY2CHqUJK+yxyQrSPmxjpXtmupv/4pH
1p2P0MTkcMR65ZF+AQfnLCsKSJp3xZ4qjetx0Gz1/pTRKc/JGjBM048aoiX7Yt4w
OUGFVjOR04SecXKwyuZ/+1uxOYuZfoDFaj7nCYy7dMagWJ/N7tpKqNzFWAlliiMr
ueCNTe90P+FzpRJ1MPquNupvhCj8ORW84oHpjdcDAO9wAjTzakhEFTXmfVlpFqc6
fmueN3OAcFsseqnuEoes27VOhPzyuSxYw8SGn+A2PfyqsQ7TeA5eg6EWtCIy/RPx
55w+ghUZjle84EeW
-----END CERTIFICATE-----
