Certificate:
    Data:
        Version: 3 (0x2)
        Serial Number: 3 (0x3)
        Signature Algorithm: sha1WithRSAEncryption
        Issuer: CN=localhost
        Validity
            Not Before: Sep 30 12:54:33 2020 GMT
            Not After : Sep 30 12:54:33 2030 GMT
        Subject: CN=localhost
        Subject Public Key Info:
            Public Key Algorithm: rsaEncryption
                RSA Public-Key: (2048 bit)
                Modulus:
                    00:d4:ed:c3:57:97:ee:05:cf:2c:13:2a:6e:6e:a4:
                    dd:47:f1:7e:43:f3:42:39:db:fb:dd:21:0c:6d:3d:
                    a9:4c:2e:db:84:36:b7:8f:50:88:2b:e4:8b:38:85:
                    eb:bb:4c:fe:e2:34:ad:5f:58:65:ef:ee:10:81:eb:
                    34:b8:7d:21:7a:a9:ca:a8:7c:92:75:90:0b:49:d2:
                    ec:05:54:83:59:19:5f:ac:9e:5a:15:cc:ad:ce:b0:
                    a6:d9:a4:12:13:5a:ee:26:38:89:7d:f9:02:51:2e:
                    70:01:6e:97:66:d2:5f:3d:20:eb:55:8f:33:73:c8:
                    58:1d:8d:31:df:a7:89:63:c8:35:42:72:cf:dc:41:
                    f2:ad:ec:ba:72:a3:33:5b:bd:ac:59:b7:23:32:f0:
                    c6:fd:6d:41:3b:34:f6:49:19:1f:b0:da:57:ee:fe:
                    40:f1:10:8e:62:86:f7:28:73:e1:f0:36:ec:4b:ab:
                    d0:31:2d:de:25:a2:f2:f5:19:c5:3c:f4:20:5b:28:
                    0a:77:64:2d:76:e4:d4:e4:97:04:0d:d5:a3:86:90:
                    c8:7b:04:8b:10:9e:92:42:e0:8a:2e:6d:82:7e:25:
                    37:7f:54:62:e0:1c:8f:43:bc:ef:f9:11:5e:56:76:
                    bd:9e:73:b3:32:c7:e8:ab:1f:9d:42:2e:ef:29:85:
                    49:dd
                Exponent: 65537 (0x10001)
        X509v3 extensions:
            X509v3 Key Usage: critical
                Certificate Sign, CRL Sign
            X509v3 Basic Constraints: critical
                CA:TRUE
            X509v3 Extended Key Usage: 
                TLS Web Server Authentication, TLS Web Client Authentication
            X509v3 Subject Alternative Name: 
                DNS:localhost
    Signature Algorithm: sha1WithRSAEncryption
         3a:bc:bb:be:92:72:5a:64:c3:49:d9:96:d9:84:39:08:c4:35:
         e4:88:b0:b5:c1:f1:2b:3e:46:fe:8f:8e:7d:48:a2:65:83:f5:
         ac:47:dc:57:28:68:71:84:68:0d:b3:3e:11:8f:e7:f6:3d:fd:
         7e:21:a2:41:db:d4:a0:6f:a7:58:d4:13:ba:cb:20:e7:be:95:
         41:29:40:64:76:4a:d2:7f:2d:df:ac:0b:81:d7:b4:b6:da:e5:
         45:74:3a:04:7f:5a:aa:96:cb:48:a5:da:75:47:84:ff:27:db:
         cf:c8:23:82:da:75:27:e9:6d:16:9c:21:db:eb:a5:ad:91:09:
         6e:db:a9:a5:ec:13:64:db:ae:2d:c9:d7:ab:55:dc:32:eb:7b:
         29:58:40:cf:ba:6f:5c:7e:fd:f6:0d:77:44:2c:59:84:d4:e6:
         2f:88:fe:0f:b9:71:53:e0:e4:5c:df:c9:36:7e:99:16:0c:71:
         b9:30:c0:e6:b2:03:6c:86:f8:99:31:24:e4:67:57:bc:0e:f3:
         2c:29:0d:5b:14:c8:7b:dd:13:83:53:92:af:c1:0e:4e:ca:7e:
         2c:b8:44:f2:60:1e:bc:73:14:02:36:a0:60:8d:46:9f:b2:ea:
         91:44:ea:0b:d8:ad:68:02:c7:0d:8f:96:b0:d3:42:cd:55:48:
         d4:9b:af:c1
-----BEGIN CERTIFICATE-----
MIIC+zCCAeOgAwIBAgIBAzANBgkqhkiG9w0BAQUFADAUMRIwEAYDVQQDDAlsb2Nh
bGhvc3QwHhcNMjAwOTMwMTI1NDMzWhcNMzAwOTMwMTI1NDMzWjAUMRIwEAYDVQQD
DAlsb2NhbGhvc3QwggEiMA0GCSqGSIb3DQEBAQUAA4IBDwAwggEKAoIBAQDU7cNX
l+4FzywTKm5upN1H8X5D80I52/vdIQxtPalMLtuENrePUIgr5Is4heu7TP7iNK1f
WGXv7hCB6zS4fSF6qcqofJJ1kAtJ0uwFVINZGV+snloVzK3OsKbZpBITWu4mOIl9
+QJRLnABbpdm0l89IOtVjzNzyFgdjTHfp4ljyDVCcs/cQfKt7LpyozNbvaxZtyMy
8Mb9bUE7NPZJGR+w2lfu/kDxEI5ihvcoc+HwNuxLq9AxLd4lovL1GcU89CBbKAp3
ZC125NTklwQN1aOGkMh7BIsQnpJC4IoubYJ+JTd/VGLgHI9DvO/5EV5Wdr2ec7My
x+irH51CLu8phUndAgMBAAGjWDBWMA4GA1UdDwEB/wQEAwIBBjAPBgNVHRMBAf8E
BTADAQH/MB0GA1UdJQQWMBQGCCsGAQUFBwMBBggrBgEFBQcDAjAUBgNVHREEDTAL
gglsb2NhbGhvc3QwDQYJKoZIhvcNAQEFBQADggEBADq8u76Sclpkw0nZltmEOQjE
NeSIsLXB8Ss+Rv6Pjn1IomWD9axH3FcoaHGEaA2zPhGP5/Y9/X4hokHb1KBvp1jU
E7rLIOe+lUEpQGR2StJ/Ld+sC4HXtLba5UV0OgR/WqqWy0il2nVHhP8n28/II4La
dSfpbRacIdvrpa2RCW7bqaXsE2Tbri3J16tV3DLreylYQM+6b1x+/fYNd0QsWYTU
5i+I/g+5cVPg5FzfyTZ+mRYMcbkwwOayA2yG+JkxJORnV7wO8ywpDVsUyHvdE4NT
kq/BDk7Kfiy4RPJgHrxzFAI2oGCNRp+y6pFE6gvYrWgCxw2PlrDTQs1VSNSbr8E=
-----END CERTIFICATE-----
