Certificate:
    Data:
        Version: 3 (0x2)
        Serial Number: 5747736622853871796 (0x4fc4100173b558b4)
        Signature Algorithm: sha256WithRSAEncryption
        Issuer: CN=localhost
        Validity
            Not Before: Jul 14 00:15:26 2020 GMT
            Not After : Jul 14 00:15:26 2021 GMT
        Subject: CN=localhost
        Subject Public Key Info:
            Public Key Algorithm: rsaEncryption
                RSA Public-Key: (2048 bit)
                Modulus:
                    00:d4:ed:c3:57:97:ee:05:cf:2c:13:2a:6e:6e:a4:
                    dd:47:f1:7e:43:f3:42:39:db:fb:dd:21:0c:6d:3d:
                    a9:4c:2e:db:84:36:b7:8f:50:88:2b:e4:8b:38:85:
                    eb:bb:4c:fe:e2:34:ad:5f:58:65:ef:ee:10:81:eb:
                    34:b8:7d:21:7a:a9:ca:a8:7c:92:75:90:0b:49:d2:
                    ec:05:54:83:59:19:5f:ac:9e:5a:15:cc:ad:ce:b0:
                    a6:d9:a4:12:13:5a:ee:26:38:89:7d:f9:02:51:2e:
                    70:01:6e:97:66:d2:5f:3d:20:eb:55:8f:33:73:c8:
                    58:1d:8d:31:df:a7:89:63:c8:35:42:72:cf:dc:41:
                    f2:ad:ec:ba:72:a3:33:5b:bd:ac:59:b7:23:32:f0:
                    c6:fd:6d:41:3b:34:f6:49:19:1f:b0:da:57:ee:fe:
                    40:f1:10:8e:62:86:f7:28:73:e1:f0:36:ec:4b:ab:
                    d0:31:2d:de:25:a2:f2:f5:19:c5:3c:f4:20:5b:28:
                    0a:77:64:2d:76:e4:d4:e4:97:04:0d:d5:a3:86:90:
                    c8:7b:04:8b:10:9e:92:42:e0:8a:2e:6d:82:7e:25:
                    37:7f:54:62:e0:1c:8f:43:bc:ef:f9:11:5e:56:76:
                    bd:9e:73:b3:32:c7:e8:ab:1f:9d:42:2e:ef:29:85:
                    49:dd
                Exponent: 65537 (0x10001)
        X509v3 extensions:
            X509v3 Basic Constraints: critical
                CA:FALSE
            X509v3 Key Usage: critical
                Digital Signature, Key Encipherment
            X509v3 Extended Key Usage: critical
                TLS Web Server Authentication
            X509v3 Subject Alternative Name: critical
                DNS:localhost
            1.3.6.1.4.1.311.84.1.1: 
                .
    Signature Algorithm: sha256WithRSAEncryption
         83:da:eb:d3:61:f8:f3:dd:41:47:66:96:de:0b:d8:c6:77:f3:
         86:22:0f:be:3e:65:9a:0b:db:22:9a:57:9f:9a:c8:5f:b4:42:
         dd:98:95:d6:c8:1f:cf:a5:b6:32:b5:66:b5:eb:e6:0b:5b:3b:
         44:64:59:b8:ee:be:96:d3:cc:25:3f:df:96:51:e3:3f:3c:e4:
         5e:1f:d3:2e:b4:20:e9:88:e2:86:02:cf:07:f2:ea:e9:55:c5:
         06:e3:52:dc:51:44:98:63:0f:eb:a7:68:5d:6f:2a:d4:8c:d8:
         fc:b3:72:70:9c:41:87:9a:21:13:b7:95:86:d1:b8:73:e7:b0:
         c3:d0:d8:7a:4e:b7:7a:6a:fc:4b:d3:7c:ac:21:f0:4f:5a:28:
         2d:b4:1d:76:81:ae:b9:3f:3a:ae:8e:da:52:88:08:89:86:50:
         b1:51:e1:f4:e8:19:f4:9e:22:5e:8d:1c:8c:b5:dc:ca:51:fb:
         a9:8a:8b:ab:81:e8:a9:e9:84:10:9d:b5:b4:65:09:3b:b2:20:
         b9:fd:13:d1:69:6d:fe:c7:ab:bd:ef:49:4e:31:9b:ce:ba:00:
         a8:c1:ec:6f:03:71:bc:8e:2f:b3:c6:20:33:b9:bd:ea:86:72:
         84:72:59:0a:45:c5:a9:b7:3b:d6:0f:8e:3d:5c:1e:87:1e:b1:
         f6:b9:e1:80
-----BEGIN CERTIFICATE-----
MIIDDDCCAfSgAwIBAgIIT8QQAXO1WLQwDQYJKoZIhvcNAQELBQAwFDESMBAGA1UE
AwwJbG9jYWxob3N0MB4XDTIwMDcxNDAwMTUyNloXDTIxMDcxNDAwMTUyNlowFDES
MBAGA1UEAwwJbG9jYWxob3N0MIIBIjANBgkqhkiG9w0BAQEFAAOCAQ8AMIIBCgKC
AQEA1O3DV5fuBc8sEypubqTdR/F+Q/NCOdv73SEMbT2pTC7bhDa3j1CIK+SLOIXr
u0z+4jStX1hl7+4Qges0uH0heqnKqHySdZALSdLsBVSDWRlfrJ5aFcytzrCm2aQS
E1ruJjiJffkCUS5wAW6XZtJfPSDrVY8zc8hYHY0x36eJY8g1QnLP3EHyrey6cqMz
W72sWbcjMvDG/W1BOzT2SRkfsNpX7v5A8RCOYob3KHPh8DbsS6vQMS3eJaLy9RnF
PPQgWygKd2QtduTU5JcEDdWjhpDIewSLEJ6SQuCKLm2CfiU3f1Ri4ByPQ7zv+RFe
Vna9nnOzMsfoqx+dQi7vKYVJ3QIDAQABo2IwYDAMBgNVHRMBAf8EAjAAMA4GA1Ud
DwEB/wQEAwIFoDAWBgNVHSUBAf8EDDAKBggrBgEFBQcDATAXBgNVHREBAf8EDTAL
gglsb2NhbGhvc3QwDwYKKwYBBAGCN1QBAQQBATANBgkqhkiG9w0BAQsFAAOCAQEA
g9rr02H4891BR2aW3gvYxnfzhiIPvj5lmgvbIppXn5rIX7RC3ZiV1sgfz6W2MrVm
tevmC1s7RGRZuO6+ltPMJT/fllHjPzzkXh/TLrQg6YjihgLPB/Lq6VXFBuNS3FFE
mGMP66doXW8q1IzY/LNycJxBh5ohE7eVhtG4c+eww9DYek63emr8S9N8rCHwT1oo
LbQddoGuuT86ro7aUogIiYZQsVHh9OgZ9J4iXo0cjLXcylH7qYqLq4HoqemEEJ21
tGUJO7Iguf0T0Wlt/serve9JTjGbzroAqMHsbwNxvI4vs8YgM7m96oZyhHJZCkXF
qbc71g+OPVwehx6x9rnhgA==
-----END CERTIFICATE-----
