Certificate:
    Data:
        Version: 3 (0x2)
        Serial Number: 2 (0x2)
        Signature Algorithm: sha256WithRSAEncryption
        Issuer: CN=localhost root
        Validity
            Not Before: Jan  1 01:00:00 2020 GMT
            Not After : Oct 24 21:07:26 2030 GMT
        Subject: CN=localhost
        Subject Public Key Info:
            Public Key Algorithm: rsaEncryption
                RSA Public-Key: (2048 bit)
                Modulus:
                    00:d4:ed:c3:57:97:ee:05:cf:2c:13:2a:6e:6e:a4:
                    dd:47:f1:7e:43:f3:42:39:db:fb:dd:21:0c:6d:3d:
                    a9:4c:2e:db:84:36:b7:8f:50:88:2b:e4:8b:38:85:
                    eb:bb:4c:fe:e2:34:ad:5f:58:65:ef:ee:10:81:eb:
                    34:b8:7d:21:7a:a9:ca:a8:7c:92:75:90:0b:49:d2:
                    ec:05:54:83:59:19:5f:ac:9e:5a:15:cc:ad:ce:b0:
                    a6:d9:a4:12:13:5a:ee:26:38:89:7d:f9:02:51:2e:
                    70:01:6e:97:66:d2:5f:3d:20:eb:55:8f:33:73:c8:
                    58:1d:8d:31:df:a7:89:63:c8:35:42:72:cf:dc:41:
                    f2:ad:ec:ba:72:a3:33:5b:bd:ac:59:b7:23:32:f0:
                    c6:fd:6d:41:3b:34:f6:49:19:1f:b0:da:57:ee:fe:
                    40:f1:10:8e:62:86:f7:28:73:e1:f0:36:ec:4b:ab:
                    d0:31:2d:de:25:a2:f2:f5:19:c5:3c:f4:20:5b:28:
                    0a:77:64:2d:76:e4:d4:e4:97:04:0d:d5:a3:86:90:
                    c8:7b:04:8b:10:9e:92:42:e0:8a:2e:6d:82:7e:25:
                    37:7f:54:62:e0:1c:8f:43:bc:ef:f9:11:5e:56:76:
                    bd:9e:73:b3:32:c7:e8:ab:1f:9d:42:2e:ef:29:85:
                    49:dd
                Exponent: 65537 (0x10001)
        X509v3 extensions:
            X509v3 Basic Constraints: critical
                CA:TRUE
            X509v3 Subject Key Identifier: 
                A6:85:41:C2:4D:8F:FE:3C:69:53:88:90:F9:6E:DF:B9:08:BF:40:7C
            X509v3 Authority Key Identifier: 
                keyid:27:93:38:DC:50:DA:01:0C:3E:3E:33:42:70:17:5A:72:BF:34:ED:0B

            X509v3 Key Usage: critical
                Certificate Sign
            1.3.6.1.4.1.311.84.1.1: 
                .
    Signature Algorithm: sha256WithRSAEncryption
         93:dd:e7:fa:38:2b:25:3a:1d:74:82:ef:a4:93:7f:b7:cc:9f:
         78:4b:56:90:18:ec:16:e2:5b:3d:95:dc:63:36:c3:84:73:a5:
         4b:8c:88:94:d3:09:b6:5e:8f:74:f6:bb:8b:86:ad:c2:17:22:
         21:9e:cd:04:3b:05:39:0e:8b:a1:86:d8:f4:d8:a1:ea:c8:53:
         e1:37:2e:15:da:fe:00:d2:c7:ae:74:22:c5:91:07:11:6f:2a:
         5f:2d:af:c1:30:d3:c1:25:3f:70:4f:25:22:7a:be:e0:e8:1f:
         f1:1f:72:25:22:1f:46:20:c9:e0:7b:12:9d:fe:cd:b1:a0:ba:
         3a:5f:0c:b3:ac:94:f2:e8:5d:ca:a0:7a:b1:90:a6:33:59:55:
         5d:e9:bf:3d:4f:a1:8d:23:92:b3:7a:4c:78:a7:a2:16:80:dc:
         9a:60:8f:89:b0:6e:45:3f:40:58:a1:d1:ea:27:92:a7:6f:b0:
         48:49:29:90:6d:51:b9:5b:7e:da:98:55:9e:1d:e6:6f:08:1a:
         9f:f6:41:12:86:4c:6a:d8:a3:10:96:bd:f1:d7:62:30:31:72:
         94:1b:ca:1e:b2:c3:c5:50:3c:64:7d:b9:92:ba:e0:ad:98:0c:
         e0:16:a8:9d:7c:6e:27:af:cc:7d:23:c1:a6:c9:74:23:db:1c:
         65:d5:a6:75:17:ac:cf:ee:a0:b1:d0:86:09:93:ce:d6:53:66:
         1c:87:1d:75:ee:53:3a:31:56:f2:13:86:af:4d:a6:c3:3b:39:
         31:db:93:2d:dc:c6:8a:f8:9c:82:73:1b:e7:3e:ce:72:f9:29:
         42:70:f7:36:cb:b2:ec:10:93:25:bd:37:63:8c:45:7d:ad:c8:
         82:f6:12:93:70:0c:1d:db:39:79:2b:85:bc:29:38:ec:3a:ae:
         d3:0e:7a:8c:14:e0:64:b5:b1:74:e3:3c:3c:ed:6b:50:7a:a7:
         ee:9b:3b:eb:68:9b:ab:8a:7c:09:7c:60:45:71:e8:a4:7d:38:
         b0:a9:5b:0a:ff:64:be:cb:28:2b:eb:03:bb:8c:5e:88:c1:89:
         b1:42:91:31:f1:3a:47:ab:a1:55:5b:61:8d:50:22:79:31:b4:
         fb:31:f5:a9:6d:cc:8f:3a:e3:10:42:27:93:bb:33:74:ea:98:
         01:7b:cf:3c:ef:ec:21:1d:3e:aa:75:c6:67:ab:e3:20:8b:e9:
         a5:2c:f4:5d:5d:3c:70:b7:a3:28:a7:27:63:84:0c:1d:80:13:
         ec:f0:6f:cd:aa:f6:e5:2b:c1:6d:35:6b:6c:dc:6b:b1:02:49:
         0d:84:19:08:6c:3f:d4:87:f5:bc:91:52:e0:2d:dc:39:81:e9:
         61:61:7b:eb:fd:45:0a:f0
-----BEGIN CERTIFICATE-----
MIIEHDCCAgSgAwIBAgIBAjANBgkqhkiG9w0BAQsFADAZMRcwFQYDVQQDDA5sb2Nh
bGhvc3Qgcm9vdDAeFw0yMDAxMDEwMTAwMDBaFw0zMDEwMjQyMTA3MjZaMBQxEjAQ
BgNVBAMMCWxvY2FsaG9zdDCCASIwDQYJKoZIhvcNAQEBBQADggEPADCCAQoCggEB
ANTtw1eX7gXPLBMqbm6k3UfxfkPzQjnb+90hDG09qUwu24Q2t49QiCvkiziF67tM
/uI0rV9YZe/uEIHrNLh9IXqpyqh8knWQC0nS7AVUg1kZX6yeWhXMrc6wptmkEhNa
7iY4iX35AlEucAFul2bSXz0g61WPM3PIWB2NMd+niWPINUJyz9xB8q3sunKjM1u9
rFm3IzLwxv1tQTs09kkZH7DaV+7+QPEQjmKG9yhz4fA27Eur0DEt3iWi8vUZxTz0
IFsoCndkLXbk1OSXBA3Vo4aQyHsEixCekkLgii5tgn4lN39UYuAcj0O87/kRXlZ2
vZ5zszLH6KsfnUIu7ymFSd0CAwEAAaN0MHIwDwYDVR0TAQH/BAUwAwEB/zAdBgNV
HQ4EFgQUpoVBwk2P/jxpU4iQ+W7fuQi/QHwwHwYDVR0jBBgwFoAUJ5M43FDaAQw+
PjNCcBdacr807QswDgYDVR0PAQH/BAQDAgIEMA8GCisGAQQBgjdUAQEEAQEwDQYJ
KoZIhvcNAQELBQADggIBAJPd5/o4KyU6HXSC76STf7fMn3hLVpAY7BbiWz2V3GM2
w4RzpUuMiJTTCbZej3T2u4uGrcIXIiGezQQ7BTkOi6GG2PTYoerIU+E3LhXa/gDS
x650IsWRBxFvKl8tr8Ew08ElP3BPJSJ6vuDoH/EfciUiH0YgyeB7Ep3+zbGgujpf
DLOslPLoXcqgerGQpjNZVV3pvz1PoY0jkrN6THinohaA3Jpgj4mwbkU/QFih0eon
kqdvsEhJKZBtUblbftqYVZ4d5m8IGp/2QRKGTGrYoxCWvfHXYjAxcpQbyh6yw8VQ
PGR9uZK64K2YDOAWqJ18bievzH0jwabJdCPbHGXVpnUXrM/uoLHQhgmTztZTZhyH
HXXuUzoxVvIThq9NpsM7OTHbky3cxor4nIJzG+c+znL5KUJw9zbLsuwQkyW9N2OM
RX2tyIL2EpNwDB3bOXkrhbwpOOw6rtMOeowU4GS1sXTjPDzta1B6p+6bO+tom6uK
fAl8YEVx6KR9OLCpWwr/ZL7LKCvrA7uMXojBibFCkTHxOkeroVVbYY1QInkxtPsx
9altzI864xBCJ5O7M3TqmAF7zzzv7CEdPqp1xmer4yCL6aUs9F1dPHC3oyinJ2OE
DB2AE+zwb82q9uUrwW01a2zca7ECSQ2EGQhsP9SH9byRUuAt3DmB6WFhe+v9RQrw
-----END CERTIFICATE-----
