Certificate:
    Data:
        Version: 3 (0x2)
        Serial Number: 1 (0x1)
        Signature Algorithm: sha256WithRSAEncryption
        Issuer: CN=localhost root
        Validity
            Not Before: Jan  1 01:00:00 2020 GMT
            Not After : Oct 24 21:07:26 2030 GMT
        Subject: CN=localhost root
        Subject Public Key Info:
            Public Key Algorithm: rsaEncryption
                RSA Public-Key: (4096 bit)
                Modulus:
                    00:ba:1b:d4:d2:89:e2:5d:2a:06:1f:bb:f9:dc:18:
                    bd:9e:f2:a1:12:d4:00:f9:5a:c5:60:34:c1:a4:f5:
                    b6:b8:3c:a3:66:72:04:c5:ff:b3:44:06:67:74:20:
                    d2:44:f8:87:87:6b:7d:5f:d1:43:03:a6:fd:9a:79:
                    04:b7:0f:ee:53:5a:0d:d0:bd:7b:dc:2d:b3:c0:59:
                    7a:dc:2f:59:7c:e5:13:6c:9e:92:c4:e4:4e:ff:96:
                    d5:80:f9:01:e1:cd:b8:ba:47:45:f9:ca:62:16:55:
                    75:6a:35:52:e3:8d:f4:16:1a:89:d6:0d:20:40:90:
                    a6:43:03:89:de:9e:55:30:bd:82:fc:8f:eb:23:db:
                    db:22:c5:16:5d:5c:b8:01:53:fd:e1:8d:3a:bf:99:
                    24:3c:db:f8:a1:18:1c:68:6e:c1:83:3e:0e:27:20:
                    84:5e:4f:ec:0b:cd:6b:99:47:f4:d9:89:0c:68:62:
                    69:8b:2b:21:a3:24:2e:0f:6e:96:0e:85:dc:bf:25:
                    54:d3:aa:78:dc:b0:b4:ce:5c:5d:58:b5:3c:f1:a4:
                    d0:da:33:24:ae:03:3a:08:c1:e0:23:1b:20:03:ae:
                    af:87:4c:66:7d:d8:4e:55:1f:32:5c:c4:ea:f4:5b:
                    3d:08:ee:88:6a:ff:fb:da:89:96:ad:0a:a6:c4:02:
                    a6:33:60:45:b6:05:33:a4:46:12:78:fc:21:6f:bc:
                    ad:50:7e:45:20:ce:c3:00:47:7c:e0:b1:ee:01:e6:
                    56:c3:ea:ec:46:a3:11:c7:3d:7a:e0:1c:74:de:fc:
                    04:43:1b:46:b1:bf:83:df:5e:38:14:8e:aa:92:27:
                    6c:78:9a:5d:62:9f:e9:95:21:56:91:3e:c4:2c:fb:
                    98:98:6e:81:bb:8c:ae:d1:f1:52:2e:52:af:91:ff:
                    b8:49:f6:ed:05:57:00:5b:ce:1b:5b:81:77:40:02:
                    a8:20:3e:2a:fb:f9:50:90:db:c9:d3:8e:09:6c:85:
                    cb:13:86:d0:1c:98:42:93:e0:cb:94:08:ef:d3:cf:
                    66:79:ad:4c:3e:6d:ec:2c:52:34:b8:41:62:1e:2e:
                    65:2d:df:aa:2d:7f:6d:db:be:c4:6c:b2:c5:d4:bd:
                    b4:93:a7:a5:37:38:a3:8b:19:3d:2f:64:ba:ec:8e:
                    5c:d8:d5:ea:c3:c9:a7:16:67:26:9f:c9:62:af:e3:
                    1d:32:c6:5d:d3:89:27:8e:c4:cd:38:49:5f:34:28:
                    99:96:61:f5:e7:d2:94:8a:22:cd:8d:24:1d:8c:e9:
                    6e:8f:97:34:ef:2c:5d:0b:c4:15:55:0d:a1:7c:4a:
                    d9:b0:5d:c0:a8:50:11:38:97:49:b5:ce:84:22:12:
                    ea:b2:cf
                Exponent: 65537 (0x10001)
        X509v3 extensions:
            X509v3 Basic Constraints: critical
                CA:TRUE
            X509v3 Subject Key Identifier: 
                27:93:38:DC:50:DA:01:0C:3E:3E:33:42:70:17:5A:72:BF:34:ED:0B
            X509v3 Authority Key Identifier: 
                keyid:27:93:38:DC:50:DA:01:0C:3E:3E:33:42:70:17:5A:72:BF:34:ED:0B

    Signature Algorithm: sha256WithRSAEncryption
         0e:c6:92:2f:b4:6f:65:ee:d0:6f:8e:f4:65:cc:9f:1e:a4:0c:
         c5:1b:53:d2:b8:59:eb:87:ae:19:58:f5:bb:f3:ec:c8:5f:91:
         ac:71:85:52:9a:fc:85:3a:40:fa:c1:17:a9:d3:09:dc:eb:c9:
         68:b6:bb:9b:ac:ec:94:d4:9f:b7:6f:c5:a7:c7:2b:a1:c9:4c:
         b5:01:14:ae:19:80:e6:0c:be:0b:06:43:7b:c6:f1:bf:f1:7c:
         ed:c7:e6:de:bb:03:24:25:43:99:25:21:48:62:28:a0:9b:28:
         32:3b:38:6f:64:e0:f0:4f:d0:9c:45:78:60:0c:f9:3f:b6:50:
         5c:3d:7e:14:ca:a3:7e:15:37:71:55:24:35:4f:0a:fd:a5:28:
         9e:1c:a3:16:1c:d2:2b:ab:cf:7b:fb:60:7d:f8:00:d1:fe:9f:
         6d:3e:20:c6:0e:14:2b:36:e2:69:0b:7d:8d:31:b4:81:4f:3b:
         6c:1e:5c:5b:fe:16:c1:d6:98:64:d2:05:39:86:26:cb:23:55:
         f7:9e:93:b6:d3:1f:ba:ab:c8:dc:af:23:d8:18:7e:a9:45:7d:
         dd:e7:d5:d4:0b:0b:fa:b7:69:d2:33:62:75:f7:29:49:19:e8:
         65:86:b6:ee:e3:b4:b6:84:6e:9d:a2:9a:1b:ef:9e:e6:18:0f:
         ff:b8:8e:47:bd:d3:4b:5c:24:9e:f1:09:97:fb:09:bf:32:3e:
         83:b2:24:00:a9:20:d2:1a:2e:4b:c0:c8:d8:22:ef:32:ee:46:
         88:53:40:cb:a6:ad:c9:7e:be:42:25:93:0b:0b:b1:72:c6:31:
         c3:11:35:4d:4e:d4:dd:d0:e0:ef:b5:be:bd:bf:19:73:74:59:
         af:11:a0:43:22:53:9d:c5:76:37:9d:da:c4:92:ae:46:4f:aa:
         ae:ce:81:6f:74:8e:cc:b3:8f:95:84:b4:c6:d1:96:40:b7:6b:
         da:46:56:b1:ee:92:a0:91:71:18:c1:f4:95:04:d5:33:b3:c2:
         fb:0a:76:11:5b:fe:1e:18:de:f8:5f:96:db:c6:59:9d:c7:94:
         bb:c2:12:17:7e:a2:98:54:b1:28:61:d7:fd:80:0e:a9:04:aa:
         97:19:6b:c4:88:b7:76:96:fe:b6:f4:83:3f:89:14:df:96:69:
         57:35:15:fe:49:31:24:8a:1e:7f:67:c6:c0:ae:33:de:18:de:
         f4:75:01:ef:b5:0b:a6:4d:4a:6d:e1:e2:05:ee:d4:ec:b3:64:
         e1:0b:47:b8:77:ac:bc:44:76:00:98:9e:3c:a3:f3:27:27:ad:
         df:0d:0f:76:9c:2f:2c:b9:67:e0:ca:f7:f3:67:59:ab:18:e5:
         90:01:0e:eb:13:3e:a1:9a
-----BEGIN CERTIFICATE-----
MIIFADCCAuigAwIBAgIBATANBgkqhkiG9w0BAQsFADAZMRcwFQYDVQQDDA5sb2Nh
bGhvc3Qgcm9vdDAeFw0yMDAxMDEwMTAwMDBaFw0zMDEwMjQyMTA3MjZaMBkxFzAV
BgNVBAMMDmxvY2FsaG9zdCByb290MIICIjANBgkqhkiG9w0BAQEFAAOCAg8AMIIC
CgKCAgEAuhvU0oniXSoGH7v53Bi9nvKhEtQA+VrFYDTBpPW2uDyjZnIExf+zRAZn
dCDSRPiHh2t9X9FDA6b9mnkEtw/uU1oN0L173C2zwFl63C9ZfOUTbJ6SxORO/5bV
gPkB4c24ukdF+cpiFlV1ajVS4430FhqJ1g0gQJCmQwOJ3p5VML2C/I/rI9vbIsUW
XVy4AVP94Y06v5kkPNv4oRgcaG7Bgz4OJyCEXk/sC81rmUf02YkMaGJpiyshoyQu
D26WDoXcvyVU06p43LC0zlxdWLU88aTQ2jMkrgM6CMHgIxsgA66vh0xmfdhOVR8y
XMTq9Fs9CO6Iav/72omWrQqmxAKmM2BFtgUzpEYSePwhb7ytUH5FIM7DAEd84LHu
AeZWw+rsRqMRxz164Bx03vwEQxtGsb+D3144FI6qkidseJpdYp/plSFWkT7ELPuY
mG6Bu4yu0fFSLlKvkf+4SfbtBVcAW84bW4F3QAKoID4q+/lQkNvJ044JbIXLE4bQ
HJhCk+DLlAjv089mea1MPm3sLFI0uEFiHi5lLd+qLX9t277EbLLF1L20k6elNzij
ixk9L2S67I5c2NXqw8mnFmcmn8lir+MdMsZd04knjsTNOElfNCiZlmH159KUiiLN
jSQdjOluj5c07yxdC8QVVQ2hfErZsF3AqFAROJdJtc6EIhLqss8CAwEAAaNTMFEw
DwYDVR0TAQH/BAUwAwEB/zAdBgNVHQ4EFgQUJ5M43FDaAQw+PjNCcBdacr807Qsw
HwYDVR0jBBgwFoAUJ5M43FDaAQw+PjNCcBdacr807QswDQYJKoZIhvcNAQELBQAD
ggIBAA7Gki+0b2Xu0G+O9GXMnx6kDMUbU9K4WeuHrhlY9bvz7MhfkaxxhVKa/IU6
QPrBF6nTCdzryWi2u5us7JTUn7dvxafHK6HJTLUBFK4ZgOYMvgsGQ3vG8b/xfO3H
5t67AyQlQ5klIUhiKKCbKDI7OG9k4PBP0JxFeGAM+T+2UFw9fhTKo34VN3FVJDVP
Cv2lKJ4coxYc0iurz3v7YH34ANH+n20+IMYOFCs24mkLfY0xtIFPO2weXFv+FsHW
mGTSBTmGJssjVfeek7bTH7qryNyvI9gYfqlFfd3n1dQLC/q3adIzYnX3KUkZ6GWG
tu7jtLaEbp2imhvvnuYYD/+4jke900tcJJ7xCZf7Cb8yPoOyJACpINIaLkvAyNgi
7zLuRohTQMumrcl+vkIlkwsLsXLGMcMRNU1O1N3Q4O+1vr2/GXN0Wa8RoEMiU53F
djed2sSSrkZPqq7OgW90jsyzj5WEtMbRlkC3a9pGVrHukqCRcRjB9JUE1TOzwvsK
dhFb/h4Y3vhfltvGWZ3HlLvCEhd+ophUsShh1/2ADqkEqpcZa8SIt3aW/rb0gz+J
FN+WaVc1Ff5JMSSKHn9nxsCuM94Y3vR1Ae+1C6ZNSm3h4gXu1OyzZOELR7h3rLxE
dgCYnjyj8ycnrd8ND3acLyy5Z+DK9/NnWasY5ZABDusTPqGa
-----END CERTIFICATE-----
